; Function Attrs: mustprogress nounwind uwtable
define dso_local i64 @_ZN5clang16SourceMgrAdapter8mapRangeERKN4llvm9SourceMgrENS1_7SMRangeE(ptr noundef nonnull align 8 dereferenceable(64) %0, ptr noundef nonnull align 8 dereferenceable(64) %1, ptr %2, ptr %3) local_unnamed_addr #0 align 2 {
  %.not = icmp eq ptr %2, null
  br i1 %.not, label %12, label %5

5:                                                ; preds = %4
  %6 = tail call i32 @_ZN5clang16SourceMgrAdapter11mapLocationERKN4llvm9SourceMgrENS1_5SMLocE(ptr noundef nonnull align 8 dereferenceable(64) %0, ptr noundef nonnull align 8 dereferenceable(64) %1, ptr nonnull %2)
  %7 = tail call i32 @_ZN5clang16SourceMgrAdapter11mapLocationERKN4llvm9SourceMgrENS1_5SMLocE(ptr noundef nonnull align 8 dereferenceable(64) %0, ptr noundef nonnull align 8 dereferenceable(64) %1, ptr %3)
  %8 = zext i32 %7 to i64
  %9 = shl nuw i64 %8, 32
  %10 = zext i32 %6 to i64
  %11 = or disjoint i64 %9, %10
  br label %12

12:                                               ; preds = %4, %5
  %.sroa.08.0.insert.insert = phi i64 [ %11, %5 ], [ 0, %4 ]
  ret i64 %.sroa.08.0.insert.insert
}